; Function Attrs: mustprogress uwtable
define hidden void @_ZNK2pb3pbc13init_use_listERN3sat12ext_use_listE(ptr noundef nonnull align 8 dereferenceable(76) %0, ptr noundef nonnull readonly align 8 captures(none) dereferenceable(8) %1) unnamed_addr #4 align 2 {
  %3 = getelementptr inbounds i8, ptr %0, i64 -8
  %4 = ptrtoint ptr %3 to i64
  %5 = getelementptr inbounds nuw i8, ptr %0, i64 32
  %6 = load i32, ptr %5, align 8, !tbaa !20
  %7 = zext i32 %6 to i64
  %.idx = shl nuw nsw i64 %7, 3
  %8 = getelementptr inbounds nuw i8, ptr %0, i64 %.idx
  %.ptr11 = getelementptr inbounds nuw i8, ptr %8, i64 76
  %.not9 = icmp eq i32 %6, 0
  br i1 %.not9, label %._crit_edge, label %.lr.ph.preheader

.lr.ph.preheader:                                 ; preds = %2
  %.ptr = getelementptr inbounds nuw i8, ptr %0, i64 76
  br label %.lr.ph

._crit_edge:                                      ; preds = %_ZN3sat12ext_use_list6insertENS_7literalEm.exit, %2
  ret void

.lr.ph:                                           ; preds = %.lr.ph.preheader, %_ZN3sat12ext_use_list6insertENS_7literalEm.exit
  %.010 = phi ptr [ %27, %_ZN3sat12ext_use_list6insertENS_7literalEm.exit ], [ %.ptr, %.lr.ph.preheader ]
  %.sroa.3.0..sroa_idx = getelementptr inbounds nuw i8, ptr %.010, i64 4
  %.sroa.3.0.copyload = load i32, ptr %.sroa.3.0..sroa_idx, align 4
  %9 = load ptr, ptr %1, align 8, !tbaa !72
  %10 = zext i32 %.sroa.3.0.copyload to i64
  %11 = getelementptr inbounds nuw %class.svector.15, ptr %9, i64 %10
  %12 = load ptr, ptr %11, align 8, !tbaa !75
  %13 = icmp eq ptr %12, null
  br i1 %13, label %20, label %14

14:                                               ; preds = %.lr.ph
  %15 = getelementptr inbounds i8, ptr %12, i64 -4
  %16 = load i32, ptr %15, align 4, !tbaa !9
  %17 = getelementptr inbounds i8, ptr %12, i64 -8
  %18 = load i32, ptr %17, align 4, !tbaa !9
  %19 = icmp eq i32 %16, %18
  br i1 %19, label %20, label %_ZN3sat12ext_use_list6insertENS_7literalEm.exit

20:                                               ; preds = %14, %.lr.ph
  tail call void @_ZN6vectorImLb0EjE13expand_vectorEv(ptr noundef nonnull align 8 dereferenceable(8) %11)
  %.pre.i.i = load ptr, ptr %11, align 8, !tbaa !75
  %.phi.trans.insert.i.i = getelementptr inbounds i8, ptr %.pre.i.i, i64 -4
  %.pre2.i.i = load i32, ptr %.phi.trans.insert.i.i, align 4, !tbaa !9
  br label %_ZN3sat12ext_use_list6insertENS_7literalEm.exit

_ZN3sat12ext_use_list6insertENS_7literalEm.exit:  ; preds = %14, %20
  %21 = phi i32 [ %.pre2.i.i, %20 ], [ %16, %14 ]
  %22 = phi ptr [ %.pre.i.i, %20 ], [ %12, %14 ]
  %23 = getelementptr inbounds i8, ptr %22, i64 -4
  %24 = zext i32 %21 to i64
  %25 = getelementptr inbounds nuw i64, ptr %22, i64 %24
  store i64 %4, ptr %25, align 8, !tbaa !78
  %26 = add i32 %21, 1
  store i32 %26, ptr %23, align 4, !tbaa !9
  %27 = getelementptr inbounds nuw i8, ptr %.010, i64 8
  %.not = icmp eq ptr %27, %.ptr11
  br i1 %.not, label %._crit_edge, label %.lr.ph
}